(i__main__
Config
p0
(dp1
S'use_vertical_flips'
p2
I01
sS'verbose'
p3
I01
sS'classifier_regr_std'
p4
(lp5
F8.0
aF8.0
aF4.0
aF4.0
asS'classifier_min_overlap'
p6
F0.1
sS'rot_90'
p7
I01
sS'class_mapping'
p8
(dp9
S' Watercraft'
p10
I2
sS' Airplane'
p11
I0
sS'bg'
p12
I3
sS' Car'
p13
I1
ssS'use_horizontal_flips'
p14
I01
sS'rpn_max_overlap'
p15
F0.7
sS'network'
p16
S'vgg'
p17
sS'img_channel_mean'
p18
(lp19
F103.939
aF116.779
aF123.68
asS'record_path'
p20
S'/media/srutarshi/DATAPART1/Srutarshi/GenDistData_npDist_binn_v2/Zeus_npdist_binn_v2/model/record.csv'
p21
sS'balanced_classes'
p22
I00
sS'anchor_box_ratios'
p23
(lp24
(lp25
I1
aI1
aa(lp26
F0.7071067811865475
aF1.414213562373095
aa(lp27
F1.414213562373095
aF0.7071067811865475
aasS'img_scaling_factor'
p28
F1.0
sS'rpn_stride'
p29
I16
sS'num_rois'
p30
I4
sS'base_net_weights'
p31
S'/media/srutarshi/DATAPART1/Srutarshi/GenDistData_npDist_binn_v2/Zeus_npdist_binn_v2/model/vgg16_weights_tf_dim_ordering_tf_kernels.h5'
p32
sS'anchor_box_scales'
p33
(lp34
I64
aI128
aI256
asS'rpn_min_overlap'
p35
F0.3
sS'model_path'
p36
S'/media/srutarshi/DATAPART1/Srutarshi/GenDistData_npDist_binn_v2/Zeus_npdist_binn_v2/model/model_frcnn_vgg.hdf5'
p37
sS'classifier_max_overlap'
p38
F0.5
sS'std_scaling'
p39
F4.0
sS'im_size'
p40
I300
sb.
